; Function Attrs: mustprogress nofree norecurse nounwind willreturn memory(argmem: readwrite) uwtable
define noundef i32 @EVP_RAND_up_ref(ptr noundef captures(address_is_null) %0) local_unnamed_addr #2 {
  %.not.i = icmp eq ptr %0, null
  br i1 %.not.i, label %evp_rand_up_ref.exit, label %2

2:                                                ; preds = %1
  %3 = getelementptr inbounds nuw i8, ptr %0, i64 32
  %4 = atomicrmw add ptr %3, i32 1 monotonic, align 4
  br label %evp_rand_up_ref.exit

evp_rand_up_ref.exit:                             ; preds = %1, %2
  ret i32 1
}